; Function Attrs: mustprogress nounwind uwtable
define hidden void @_ZN8datatype11constructorD2Ev(ptr noundef nonnull readonly align 8 captures(none) dereferenceable(32) %0) unnamed_addr #7 align 2 personality ptr @__gxx_personality_v0 {
  %2 = getelementptr inbounds nuw i8, ptr %0, i64 16
  %3 = load ptr, ptr %2, align 8, !tbaa !87
  %4 = icmp eq ptr %3, null
  br i1 %4, label %_ZN6vectorIPN8datatype8accessorELb0EjED2Ev.exit, label %_ZN6vectorIPN8datatype8accessorELb0EjE3endEv.exit

_ZN6vectorIPN8datatype8accessorELb0EjE3endEv.exit: ; preds = %1
  %5 = getelementptr inbounds i8, ptr %3, i64 -4
  %6 = load i32, ptr %5, align 4, !tbaa !25
  %7 = zext i32 %6 to i64
  %8 = getelementptr inbounds nuw ptr, ptr %3, i64 %7
  %.not8 = icmp eq i32 %6, 0
  br i1 %.not8, label %._crit_edge.thread13, label %.lr.ph

._crit_edge:                                      ; preds = %_Z7deallocIN8datatype8accessorEEvPT_.exit
  %.pre = load ptr, ptr %2, align 8, !tbaa !87
  %.not.i = icmp eq ptr %.pre, null
  br i1 %.not.i, label %_ZN6vectorIPN8datatype8accessorELb0EjED2Ev.exit, label %._crit_edge.thread13

._crit_edge.thread13:                             ; preds = %_ZN6vectorIPN8datatype8accessorELb0EjE3endEv.exit, %._crit_edge
  %9 = phi ptr [ %.pre, %._crit_edge ], [ %3, %_ZN6vectorIPN8datatype8accessorELb0EjE3endEv.exit ]
  %10 = getelementptr inbounds i8, ptr %9, i64 -4
  store i32 0, ptr %10, align 4, !tbaa !25
  %11 = getelementptr inbounds i8, ptr %9, i64 -8
  invoke void @_ZN6memory10deallocateEPv(ptr noundef nonnull %11)
          to label %_ZN6vectorIPN8datatype8accessorELb0EjED2Ev.exit unwind label %12

12:                                               ; preds = %._crit_edge.thread13
  %13 = landingpad { ptr, i32 }
          catch ptr null
  %14 = extractvalue { ptr, i32 } %13, 0
  tail call void @__clang_call_terminate(ptr %14) #29
  unreachable

_ZN6vectorIPN8datatype8accessorELb0EjED2Ev.exit:  ; preds = %1, %._crit_edge, %._crit_edge.thread13
  ret void

.lr.ph:                                           ; preds = %_ZN6vectorIPN8datatype8accessorELb0EjE3endEv.exit, %_Z7deallocIN8datatype8accessorEEvPT_.exit
  %.09 = phi ptr [ %31, %_Z7deallocIN8datatype8accessorEEvPT_.exit ], [ %3, %_ZN6vectorIPN8datatype8accessorELb0EjE3endEv.exit ]
  %15 = load ptr, ptr %.09, align 8, !tbaa !88
  %16 = icmp eq ptr %15, null
  br i1 %16, label %_Z7deallocIN8datatype8accessorEEvPT_.exit, label %17

17:                                               ; preds = %.lr.ph
  %18 = getelementptr inbounds nuw i8, ptr %15, i64 8
  %19 = load ptr, ptr %18, align 8, !tbaa !3
  %.not.i.i.i.i = icmp eq ptr %19, null
  br i1 %.not.i.i.i.i, label %_ZN8datatype8accessorD2Ev.exit.i, label %20

20:                                               ; preds = %17
  %21 = getelementptr inbounds nuw i8, ptr %15, i64 16
  %22 = load ptr, ptr %21, align 8, !tbaa !54
  %23 = getelementptr inbounds nuw i8, ptr %19, i64 8
  %24 = load i32, ptr %23, align 4, !tbaa !21
  %25 = add i32 %24, -1
  store i32 %25, ptr %23, align 4, !tbaa !21
  %26 = icmp eq i32 %25, 0
  br i1 %26, label %27, label %_ZN8datatype8accessorD2Ev.exit.i

27:                                               ; preds = %20
  invoke void @_ZN11ast_manager11delete_nodeEP3ast(ptr noundef nonnull align 8 dereferenceable(976) %22, ptr noundef nonnull %19)
          to label %_ZN8datatype8accessorD2Ev.exit.i unwind label %28

28:                                               ; preds = %27
  %29 = landingpad { ptr, i32 }
          catch ptr null
  %30 = extractvalue { ptr, i32 } %29, 0
  tail call void @__clang_call_terminate(ptr %30) #29
  unreachable

_ZN8datatype8accessorD2Ev.exit.i:                 ; preds = %27, %20, %17
  invoke void @_ZN6memory10deallocateEPv(ptr noundef nonnull %15)
          to label %_Z7deallocIN8datatype8accessorEEvPT_.exit unwind label %32

_Z7deallocIN8datatype8accessorEEvPT_.exit:        ; preds = %.lr.ph, %_ZN8datatype8accessorD2Ev.exit.i
  %31 = getelementptr inbounds nuw i8, ptr %.09, i64 8
  %.not = icmp eq ptr %31, %8
  br i1 %.not, label %._crit_edge, label %.lr.ph

32:                                               ; preds = %_ZN8datatype8accessorD2Ev.exit.i
  %33 = landingpad { ptr, i32 }
          catch ptr null
  %34 = extractvalue { ptr, i32 } %33, 0
  tail call void @__clang_call_terminate(ptr %34) #29
  unreachable
}